; Function Attrs: mustprogress nofree norecurse nosync nounwind willreturn memory(read, inaccessiblemem: none) uwtable
define hidden noundef zeroext i1 @_ZN4cvc58internal6theory11quantifiers17QuantConflictFind10needsCheckENS1_6Theory6EffortE(ptr noundef nonnull readonly align 8 captures(none) dereferenceable(452) %0, i32 noundef %1) unnamed_addr #10 align 2 {
  %3 = getelementptr inbounds nuw i8, ptr %0, i64 16
  %4 = load ptr, ptr %3, align 8, !tbaa !689
  %5 = getelementptr inbounds nuw i8, ptr %4, i64 248
  %6 = load i8, ptr %5, align 1, !tbaa !406, !range !404, !noundef !405
  %7 = trunc nuw i8 %6 to i1
  %8 = icmp eq i32 %1, 100
  %not. = xor i1 %7, true
  %9 = and i1 %8, %not.
  ret i1 %9
}